target datalayout = "e-m:e-p270:32:32-p271:32:32-p272:64:64-i64:64-i128:128-f80:128-n8:16:32:64-S128"
target triple = "x86_64-pc-linux-gnu"

%struct.lineptr = type { ptr, i32 }

@.str = private unnamed_addr constant [3 x i8] c"\\r\00", align 1
@.str.1 = private unnamed_addr constant [7 x i8] c"\\x%02X\00", align 1
@.str.2 = private unnamed_addr constant [7 x i8] c"\\u%04X\00", align 1
@.str.3 = private unnamed_addr constant [7 x i8] c"\\u????\00", align 1
@pg_get_utf8_id.utf8_id = internal global i32 -1, align 4
@.str.4 = private unnamed_addr constant [5 x i8] c"utf8\00", align 1

; Function Attrs: nounwind uwtable
define internal i32 @utf8_to_unicode(ptr noundef %0) #0 {
  %2 = alloca i32, align 4
  %3 = alloca ptr, align 8
  store ptr %0, ptr %3, align 8
  %4 = load ptr, ptr %3, align 8
  %5 = load i8, ptr %4, align 1
  %6 = zext i8 %5 to i32
  %7 = and i32 %6, 128
  %8 = icmp eq i32 %7, 0
  br i1 %8, label %9, label %14

9:                                                ; preds = %1
  %10 = load ptr, ptr %3, align 8
  %11 = getelementptr inbounds i8, ptr %10, i64 0
  %12 = load i8, ptr %11, align 1
  %13 = zext i8 %12 to i32
  store i32 %13, ptr %2, align 4
  br label %93

14:                                               ; preds = %1
  %15 = load ptr, ptr %3, align 8
  %16 = load i8, ptr %15, align 1
  %17 = zext i8 %16 to i32
  %18 = and i32 %17, 224
  %19 = icmp eq i32 %18, 192
  br i1 %19, label %20, label %33

20:                                               ; preds = %14
  %21 = load ptr, ptr %3, align 8
  %22 = getelementptr inbounds i8, ptr %21, i64 0
  %23 = load i8, ptr %22, align 1
  %24 = zext i8 %23 to i32
  %25 = and i32 %24, 31
  %26 = shl i32 %25, 6
  %27 = load ptr, ptr %3, align 8
  %28 = getelementptr inbounds i8, ptr %27, i64 1
  %29 = load i8, ptr %28, align 1
  %30 = zext i8 %29 to i32
  %31 = and i32 %30, 63
  %32 = or i32 %26, %31
  store i32 %32, ptr %2, align 4
  br label %93

33:                                               ; preds = %14
  %34 = load ptr, ptr %3, align 8
  %35 = load i8, ptr %34, align 1
  %36 = zext i8 %35 to i32
  %37 = and i32 %36, 240
  %38 = icmp eq i32 %37, 224
  br i1 %38, label %39, label %59

39:                                               ; preds = %33
  %40 = load ptr, ptr %3, align 8
  %41 = getelementptr inbounds i8, ptr %40, i64 0
  %42 = load i8, ptr %41, align 1
  %43 = zext i8 %42 to i32
  %44 = and i32 %43, 15
  %45 = shl i32 %44, 12
  %46 = load ptr, ptr %3, align 8
  %47 = getelementptr inbounds i8, ptr %46, i64 1
  %48 = load i8, ptr %47, align 1
  %49 = zext i8 %48 to i32
  %50 = and i32 %49, 63
  %51 = shl i32 %50, 6
  %52 = or i32 %45, %51
  %53 = load ptr, ptr %3, align 8
  %54 = getelementptr inbounds i8, ptr %53, i64 2
  %55 = load i8, ptr %54, align 1
  %56 = zext i8 %55 to i32
  %57 = and i32 %56, 63
  %58 = or i32 %52, %57
  store i32 %58, ptr %2, align 4
  br label %93

59:                                               ; preds = %33
  %60 = load ptr, ptr %3, align 8
  %61 = load i8, ptr %60, align 1
  %62 = zext i8 %61 to i32
  %63 = and i32 %62, 248
  %64 = icmp eq i32 %63, 240
  br i1 %64, label %65, label %92

65:                                               ; preds = %59
  %66 = load ptr, ptr %3, align 8
  %67 = getelementptr inbounds i8, ptr %66, i64 0
  %68 = load i8, ptr %67, align 1
  %69 = zext i8 %68 to i32
  %70 = and i32 %69, 7
  %71 = shl i32 %70, 18
  %72 = load ptr, ptr %3, align 8
  %73 = getelementptr inbounds i8, ptr %72, i64 1
  %74 = load i8, ptr %73, align 1
  %75 = zext i8 %74 to i32
  %76 = and i32 %75, 63
  %77 = shl i32 %76, 12
  %78 = or i32 %71, %77
  %79 = load ptr, ptr %3, align 8
  %80 = getelementptr inbounds i8, ptr %79, i64 2
  %81 = load i8, ptr %80, align 1
  %82 = zext i8 %81 to i32
  %83 = and i32 %82, 63
  %84 = shl i32 %83, 6
  %85 = or i32 %78, %84
  %86 = load ptr, ptr %3, align 8
  %87 = getelementptr inbounds i8, ptr %86, i64 3
  %88 = load i8, ptr %87, align 1
  %89 = zext i8 %88 to i32
  %90 = and i32 %89, 63
  %91 = or i32 %85, %90
  store i32 %91, ptr %2, align 4
  br label %93

92:                                               ; preds = %59
  store i32 -1, ptr %2, align 4
  br label %93

93:                                               ; preds = %92, %65, %39, %20, %9
  %94 = load i32, ptr %2, align 4
  ret i32 %94
}

; Function Attrs: nounwind uwtable
define internal i32 @pg_get_utf8_id() #0 {
  %1 = load i32, ptr @pg_get_utf8_id.utf8_id, align 4
  %2 = icmp slt i32 %1, 0
  br i1 %2, label %3, label %5

3:                                                ; preds = %0
  %4 = call i32 @pg_char_to_encoding(ptr noundef @.str.4)
  store i32 %4, ptr @pg_get_utf8_id.utf8_id, align 4
  br label %5

5:                                                ; preds = %3, %0
  %6 = load i32, ptr @pg_get_utf8_id.utf8_id, align 4
  ret i32 %6
}

; Function Attrs: nounwind uwtable
define dso_local void @pg_wcsformat(ptr noundef %0, i64 noundef %1, i32 noundef %2, ptr noundef %3, i32 noundef %4) #0 {
  %6 = alloca ptr, align 8
  %7 = alloca i64, align 8
  %8 = alloca i32, align 4
  %9 = alloca ptr, align 8
  %10 = alloca i32, align 4
  %11 = alloca i32, align 4
  %12 = alloca i32, align 4
  %13 = alloca i32, align 4
  %14 = alloca ptr, align 8
  %15 = alloca i32, align 4
  store ptr %0, ptr %6, align 8
  store i64 %1, ptr %7, align 8
  store i32 %2, ptr %8, align 4
  store ptr %3, ptr %9, align 8
  store i32 %4, ptr %10, align 4
  call void @llvm.lifetime.start.p0(i64 4, ptr %11) #5
  call void @llvm.lifetime.start.p0(i64 4, ptr %12) #5
  store i32 0, ptr %12, align 4
  call void @llvm.lifetime.start.p0(i64 4, ptr %13) #5
  store i32 0, ptr %13, align 4
  call void @llvm.lifetime.start.p0(i64 8, ptr %14) #5
  %16 = load ptr, ptr %9, align 8
  %17 = getelementptr inbounds nuw %struct.lineptr, ptr %16, i32 0, i32 0
  %18 = load ptr, ptr %17, align 8
  store ptr %18, ptr %14, align 8
  br label %19

19:                                               ; preds = %165, %5
  %20 = load ptr, ptr %6, align 8
  %21 = load i8, ptr %20, align 1
  %22 = zext i8 %21 to i32
  %23 = icmp ne i32 %22, 0
  br i1 %23, label %24, label %27

24:                                               ; preds = %19
  %25 = load i64, ptr %7, align 8
  %26 = icmp ugt i64 %25, 0
  br label %27

27:                                               ; preds = %24, %19
  %28 = phi i1 [ false, %19 ], [ %26, %24 ]
  br i1 %28, label %29, label %170

29:                                               ; preds = %27
  %30 = load ptr, ptr %6, align 8
  %31 = load i32, ptr %8, align 4
  %32 = call i32 @PQmblen(ptr noundef %30, i32 noundef %31)
  store i32 %32, ptr %12, align 4
  %33 = load i64, ptr %7, align 8
  %34 = load i32, ptr %12, align 4
  %35 = sext i32 %34 to i64
  %36 = icmp ult i64 %33, %35
  br i1 %36, label %37, label %38

37:                                               ; preds = %29
  br label %170

38:                                               ; preds = %29
  %39 = load ptr, ptr %6, align 8
  %40 = load i32, ptr %8, align 4
  %41 = call i32 @PQdsplen(ptr noundef %39, i32 noundef %40)
  store i32 %41, ptr %11, align 4
  %42 = load i32, ptr %12, align 4
  %43 = icmp eq i32 %42, 1
  br i1 %43, label %44, label %119

44:                                               ; preds = %38
  %45 = load ptr, ptr %6, align 8
  %46 = load i8, ptr %45, align 1
  %47 = zext i8 %46 to i32
  %48 = icmp eq i32 %47, 10
  br i1 %48, label %49, label %66

49:                                               ; preds = %44
  %50 = load ptr, ptr %14, align 8
  %51 = getelementptr inbounds nuw i8, ptr %50, i32 1
  store ptr %51, ptr %14, align 8
  store i8 0, ptr %50, align 1
  %52 = load i32, ptr %13, align 4
  %53 = load ptr, ptr %9, align 8
  %54 = getelementptr inbounds nuw %struct.lineptr, ptr %53, i32 0, i32 1
  store i32 %52, ptr %54, align 8
  store i32 0, ptr %13, align 4
  %55 = load ptr, ptr %9, align 8
  %56 = getelementptr inbounds nuw %struct.lineptr, ptr %55, i32 1
  store ptr %56, ptr %9, align 8
  %57 = load i32, ptr %10, align 4
  %58 = add i32 %57, -1
  store i32 %58, ptr %10, align 4
  %59 = load i32, ptr %10, align 4
  %60 = icmp sle i32 %59, 0
  br i1 %60, label %61, label %62

61:                                               ; preds = %49
  call void @exit(i32 noundef 1) #6
  unreachable

62:                                               ; preds = %49
  %63 = load ptr, ptr %14, align 8
  %64 = load ptr, ptr %9, align 8
  %65 = getelementptr inbounds nuw %struct.lineptr, ptr %64, i32 0, i32 0
  store ptr %63, ptr %65, align 8
  br label %118

66:                                               ; preds = %44
  %67 = load ptr, ptr %6, align 8
  %68 = load i8, ptr %67, align 1
  %69 = zext i8 %68 to i32
  %70 = icmp eq i32 %69, 13
  br i1 %70, label %71, label %78

71:                                               ; preds = %66
  %72 = load ptr, ptr %14, align 8
  %73 = call ptr @strcpy(ptr noundef %72, ptr noundef @.str) #5
  %74 = load i32, ptr %13, align 4
  %75 = add i32 %74, 2
  store i32 %75, ptr %13, align 4
  %76 = load ptr, ptr %14, align 8
  %77 = getelementptr inbounds i8, ptr %76, i64 2
  store ptr %77, ptr %14, align 8
  br label %117

78:                                               ; preds = %66
  %79 = load ptr, ptr %6, align 8
  %80 = load i8, ptr %79, align 1
  %81 = zext i8 %80 to i32
  %82 = icmp eq i32 %81, 9
  br i1 %82, label %83, label %94

83:                                               ; preds = %78
  br label %84

84:                                               ; preds = %89, %83
  %85 = load ptr, ptr %14, align 8
  %86 = getelementptr inbounds nuw i8, ptr %85, i32 1
  store ptr %86, ptr %14, align 8
  store i8 32, ptr %85, align 1
  %87 = load i32, ptr %13, align 4
  %88 = add i32 %87, 1
  store i32 %88, ptr %13, align 4
  br label %89

89:                                               ; preds = %84
  %90 = load i32, ptr %13, align 4
  %91 = srem i32 %90, 8
  %92 = icmp ne i32 %91, 0
  br i1 %92, label %84, label %93, !llvm.loop !8

93:                                               ; preds = %89
  br label %116

94:                                               ; preds = %78
  %95 = load i32, ptr %11, align 4
  %96 = icmp slt i32 %95, 0
  br i1 %96, label %97, label %107

97:                                               ; preds = %94
  %98 = load ptr, ptr %14, align 8
  %99 = load ptr, ptr %6, align 8
  %100 = load i8, ptr %99, align 1
  %101 = zext i8 %100 to i32
  %102 = call i32 (ptr, ptr, ...) @pg_sprintf(ptr noundef %98, ptr noundef @.str.1, i32 noundef %101)
  %103 = load i32, ptr %13, align 4
  %104 = add i32 %103, 4
  store i32 %104, ptr %13, align 4
  %105 = load ptr, ptr %14, align 8
  %106 = getelementptr inbounds i8, ptr %105, i64 4
  store ptr %106, ptr %14, align 8
  br label %115

107:                                              ; preds = %94
  %108 = load i32, ptr %11, align 4
  %109 = load i32, ptr %13, align 4
  %110 = add i32 %109, %108
  store i32 %110, ptr %13, align 4
  %111 = load ptr, ptr %6, align 8
  %112 = load i8, ptr %111, align 1
  %113 = load ptr, ptr %14, align 8
  %114 = getelementptr inbounds nuw i8, ptr %113, i32 1
  store ptr %114, ptr %14, align 8
  store i8 %112, ptr %113, align 1
  br label %115

115:                                              ; preds = %107, %97
  br label %116

116:                                              ; preds = %115, %93
  br label %117

117:                                              ; preds = %116, %71
  br label %118

118:                                              ; preds = %117, %62
  br label %160

119:                                              ; preds = %38
  %120 = load i32, ptr %11, align 4
  %121 = icmp slt i32 %120, 0
  br i1 %121, label %122, label %139

122:                                              ; preds = %119
  %123 = load i32, ptr %8, align 4
  %124 = call i32 @pg_get_utf8_id()
  %125 = icmp eq i32 %123, %124
  br i1 %125, label %126, label %131

126:                                              ; preds = %122
  %127 = load ptr, ptr %14, align 8
  %128 = load ptr, ptr %6, align 8
  %129 = call i32 @utf8_to_unicode(ptr noundef %128)
  %130 = call i32 (ptr, ptr, ...) @pg_sprintf(ptr noundef %127, ptr noundef @.str.2, i32 noundef %129)
  br label %134

131:                                              ; preds = %122
  %132 = load ptr, ptr %14, align 8
  %133 = call i32 (ptr, ptr, ...) @pg_sprintf(ptr noundef %132, ptr noundef @.str.3)
  br label %134

134:                                              ; preds = %131, %126
  %135 = load ptr, ptr %14, align 8
  %136 = getelementptr inbounds i8, ptr %135, i64 6
  store ptr %136, ptr %14, align 8
  %137 = load i32, ptr %13, align 4
  %138 = add i32 %137, 6
  store i32 %138, ptr %13, align 4
  br label %159

139:                                              ; preds = %119
  call void @llvm.lifetime.start.p0(i64 4, ptr %15) #5
  store i32 0, ptr %15, align 4
  br label %140

140:                                              ; preds = %152, %139
  %141 = load i32, ptr %15, align 4
  %142 = load i32, ptr %12, align 4
  %143 = icmp slt i32 %141, %142
  br i1 %143, label %144, label %155

144:                                              ; preds = %140
  %145 = load ptr, ptr %6, align 8
  %146 = load i32, ptr %15, align 4
  %147 = sext i32 %146 to i64
  %148 = getelementptr inbounds i8, ptr %145, i64 %147
  %149 = load i8, ptr %148, align 1
  %150 = load ptr, ptr %14, align 8
  %151 = getelementptr inbounds nuw i8, ptr %150, i32 1
  store ptr %151, ptr %14, align 8
  store i8 %149, ptr %150, align 1
  br label %152

152:                                              ; preds = %144
  %153 = load i32, ptr %15, align 4
  %154 = add i32 %153, 1
  store i32 %154, ptr %15, align 4
  br label %140, !llvm.loop !9

155:                                              ; preds = %140
  %156 = load i32, ptr %11, align 4
  %157 = load i32, ptr %13, align 4
  %158 = add i32 %157, %156
  store i32 %158, ptr %13, align 4
  call void @llvm.lifetime.end.p0(i64 4, ptr %15) #5
  br label %159

159:                                              ; preds = %155, %134
  br label %160

160:                                              ; preds = %159, %118
  %161 = load i32, ptr %12, align 4
  %162 = sext i32 %161 to i64
  %163 = load i64, ptr %7, align 8
  %164 = sub i64 %163, %162
  store i64 %164, ptr %7, align 8
  br label %165

165:                                              ; preds = %160
  %166 = load i32, ptr %12, align 4
  %167 = load ptr, ptr %6, align 8
  %168 = sext i32 %166 to i64
  %169 = getelementptr inbounds i8, ptr %167, i64 %168
  store ptr %169, ptr %6, align 8
  br label %19, !llvm.loop !10

170:                                              ; preds = %37, %27
  %171 = load i32, ptr %13, align 4
  %172 = load ptr, ptr %9, align 8
  %173 = getelementptr inbounds nuw %struct.lineptr, ptr %172, i32 0, i32 1
  store i32 %171, ptr %173, align 8
  %174 = load ptr, ptr %14, align 8
  %175 = getelementptr inbounds nuw i8, ptr %174, i32 1
  store ptr %175, ptr %14, align 8
  store i8 0, ptr %174, align 1
  %176 = load i32, ptr %10, align 4
  %177 = icmp sle i32 %176, 0
  br i1 %177, label %178, label %179

178:                                              ; preds = %170
  call void @exit(i32 noundef 1) #6
  unreachable

179:                                              ; preds = %170
  %180 = load ptr, ptr %9, align 8
  %181 = getelementptr inbounds %struct.lineptr, ptr %180, i64 1
  %182 = getelementptr inbounds nuw %struct.lineptr, ptr %181, i32 0, i32 0
  store ptr null, ptr %182, align 8
  call void @llvm.lifetime.end.p0(i64 8, ptr %14) #5
  call void @llvm.lifetime.end.p0(i64 4, ptr %13) #5
  call void @llvm.lifetime.end.p0(i64 4, ptr %12) #5
  call void @llvm.lifetime.end.p0(i64 4, ptr %11) #5
  ret void
}