; Function Attrs: nounwind uwtable
define dso_local void @pg_wcsformat(ptr noundef %0, i64 noundef %1, i32 noundef %2, ptr noundef captures(none) %3, i32 noundef %4) local_unnamed_addr #0 {
  %6 = load ptr, ptr %3, align 8
  %7 = load i8, ptr %0, align 1
  %8 = icmp ne i8 %7, 0
  %9 = icmp ne i64 %1, 0
  %10 = and i1 %8, %9
  br i1 %10, label %.lr.ph92, label %._crit_edge93

.lr.ph92:                                         ; preds = %5, %.loopexit
  %.05990 = phi ptr [ %.2, %.loopexit ], [ %6, %5 ]
  %.06089 = phi i32 [ %.262, %.loopexit ], [ 0, %5 ]
  %.06386 = phi ptr [ %113, %.loopexit ], [ %0, %5 ]
  %.06485 = phi i32 [ %.165, %.loopexit ], [ %4, %5 ]
  %.06684 = phi ptr [ %.167, %.loopexit ], [ %3, %5 ]
  %.06883 = phi i64 [ %112, %.loopexit ], [ %1, %5 ]
  %11 = tail call i32 @PQmblen(ptr noundef nonnull %.06386, i32 noundef %2) #6
  %12 = sext i32 %11 to i64
  %13 = icmp ult i64 %.06883, %12
  br i1 %13, label %._crit_edge93, label %14

14:                                               ; preds = %.lr.ph92
  %15 = tail call i32 @PQdsplen(ptr noundef nonnull %.06386, i32 noundef %2) #6
  %16 = icmp eq i32 %11, 1
  br i1 %16, label %17, label %47

17:                                               ; preds = %14
  %18 = load i8, ptr %.06386, align 1
  %19 = zext i8 %18 to i32
  switch i8 %18, label %38 [
    i8 10, label %27
    i8 13, label %35
    i8 9, label %.preheader.preheader
  ]

.preheader.preheader:                             ; preds = %17
  %20 = trunc i32 %.06089 to i3
  %21 = xor i3 %20, -1
  %22 = zext i3 %21 to i64
  %23 = add nuw nsw i64 %22, 1
  tail call void @llvm.memset.p0.i64(ptr noundef nonnull align 1 dereferenceable(1) %.05990, i8 32, i64 %23, i1 false)
  %scevgep = getelementptr i8, ptr %.05990, i64 1
  %scevgep106 = getelementptr i8, ptr %scevgep, i64 %22
  %24 = zext i3 %21 to i32
  %25 = add i32 %.06089, 1
  %26 = add i32 %25, %24
  br label %.loopexit

27:                                               ; preds = %17
  store i8 0, ptr %.05990, align 1
  %28 = getelementptr inbounds nuw i8, ptr %.06684, i64 8
  store i32 %.06089, ptr %28, align 8
  %29 = add i32 %.06485, -1
  %30 = icmp slt i32 %29, 1
  br i1 %30, label %31, label %32

31:                                               ; preds = %27
  tail call void @exit(i32 noundef 1) #7
  unreachable

32:                                               ; preds = %27
  %33 = getelementptr inbounds nuw i8, ptr %.06684, i64 16
  %34 = getelementptr inbounds nuw i8, ptr %.05990, i64 1
  store ptr %34, ptr %33, align 8
  br label %.loopexit

35:                                               ; preds = %17
  tail call void @llvm.memcpy.p0.p0.i64(ptr noundef nonnull align 1 dereferenceable(3) %.05990, ptr noundef nonnull align 1 dereferenceable(3) @.str, i64 3, i1 false) #6
  %36 = add i32 %.06089, 2
  %37 = getelementptr inbounds nuw i8, ptr %.05990, i64 2
  br label %.loopexit

38:                                               ; preds = %17
  %39 = icmp slt i32 %15, 0
  br i1 %39, label %40, label %44

40:                                               ; preds = %38
  %41 = tail call i32 (ptr, ptr, ...) @pg_sprintf(ptr noundef %.05990, ptr noundef nonnull @.str.1, i32 noundef %19) #6
  %42 = add i32 %.06089, 4
  %43 = getelementptr inbounds nuw i8, ptr %.05990, i64 4
  br label %.loopexit

44:                                               ; preds = %38
  %45 = add i32 %15, %.06089
  %46 = getelementptr inbounds nuw i8, ptr %.05990, i64 1
  store i8 %18, ptr %.05990, align 1
  br label %.loopexit

47:                                               ; preds = %14
  %48 = icmp slt i32 %15, 0
  br i1 %48, label %50, label %.preheader75

.preheader75:                                     ; preds = %47
  %49 = icmp sgt i32 %11, 0
  br i1 %49, label %.lr.ph.preheader, label %._crit_edge

.lr.ph.preheader:                                 ; preds = %.preheader75
  %wide.trip.count = zext nneg i32 %11 to i64
  br label %.lr.ph

50:                                               ; preds = %47
  %51 = load i32, ptr @pg_get_utf8_id.utf8_id, align 4
  %52 = icmp slt i32 %51, 0
  br i1 %52, label %53, label %pg_get_utf8_id.exit

53:                                               ; preds = %50
  %54 = tail call i32 @pg_char_to_encoding(ptr noundef nonnull @.str.4) #6
  store i32 %54, ptr @pg_get_utf8_id.utf8_id, align 4
  br label %pg_get_utf8_id.exit

pg_get_utf8_id.exit:                              ; preds = %50, %53
  %55 = phi i32 [ %54, %53 ], [ %51, %50 ]
  %56 = icmp eq i32 %2, %55
  br i1 %56, label %57, label %103

57:                                               ; preds = %pg_get_utf8_id.exit
  %58 = load i8, ptr %.06386, align 1
  %59 = zext i8 %58 to i32
  %60 = icmp sgt i8 %58, -1
  br i1 %60, label %utf8_to_unicode.exit, label %61

61:                                               ; preds = %57
  %62 = and i32 %59, 224
  %63 = icmp eq i32 %62, 192
  br i1 %63, label %64, label %67

64:                                               ; preds = %61
  %65 = shl nuw nsw i32 %59, 6
  %66 = and i32 %65, 1984
  br label %.sink.split.i

67:                                               ; preds = %61
  %68 = and i32 %59, 240
  %69 = icmp eq i32 %68, 224
  br i1 %69, label %70, label %79

70:                                               ; preds = %67
  %71 = shl nuw nsw i32 %59, 12
  %72 = and i32 %71, 61440
  %73 = getelementptr inbounds nuw i8, ptr %.06386, i64 1
  %74 = load i8, ptr %73, align 1
  %75 = and i8 %74, 63
  %76 = zext nneg i8 %75 to i32
  %77 = shl nuw nsw i32 %76, 6
  %78 = or disjoint i32 %77, %72
  br label %.sink.split.i

79:                                               ; preds = %67
  %80 = and i32 %59, 248
  %81 = icmp eq i32 %80, 240
  br i1 %81, label %82, label %utf8_to_unicode.exit

82:                                               ; preds = %79
  %83 = shl nuw nsw i32 %59, 18
  %84 = and i32 %83, 1835008
  %85 = getelementptr inbounds nuw i8, ptr %.06386, i64 1
  %86 = load i8, ptr %85, align 1
  %87 = and i8 %86, 63
  %88 = zext nneg i8 %87 to i32
  %89 = shl nuw nsw i32 %88, 12
  %90 = or disjoint i32 %89, %84
  %91 = getelementptr inbounds nuw i8, ptr %.06386, i64 2
  %92 = load i8, ptr %91, align 1
  %93 = and i8 %92, 63
  %94 = zext nneg i8 %93 to i32
  %95 = shl nuw nsw i32 %94, 6
  %96 = or disjoint i32 %90, %95
  br label %.sink.split.i

.sink.split.i:                                    ; preds = %82, %70, %64
  %.sink18.i = phi i64 [ 3, %82 ], [ 2, %70 ], [ 1, %64 ]
  %.sink.i = phi i32 [ %96, %82 ], [ %78, %70 ], [ %66, %64 ]
  %97 = getelementptr inbounds nuw i8, ptr %.06386, i64 %.sink18.i
  %98 = load i8, ptr %97, align 1
  %99 = and i8 %98, 63
  %100 = zext nneg i8 %99 to i32
  %101 = or disjoint i32 %.sink.i, %100
  br label %utf8_to_unicode.exit

utf8_to_unicode.exit:                             ; preds = %57, %79, %.sink.split.i
  %.0.i = phi i32 [ %59, %57 ], [ -1, %79 ], [ %101, %.sink.split.i ]
  %102 = tail call i32 (ptr, ptr, ...) @pg_sprintf(ptr noundef %.05990, ptr noundef nonnull @.str.2, i32 noundef %.0.i) #6
  br label %105

103:                                              ; preds = %pg_get_utf8_id.exit
  %104 = tail call i32 (ptr, ptr, ...) @pg_sprintf(ptr noundef %.05990, ptr noundef nonnull @.str.3) #6
  br label %105

105:                                              ; preds = %103, %utf8_to_unicode.exit
  %106 = getelementptr inbounds nuw i8, ptr %.05990, i64 6
  %107 = add i32 %.06089, 6
  br label %.loopexit

.lr.ph:                                           ; preds = %.lr.ph.preheader, %.lr.ph
  %indvars.iv = phi i64 [ 0, %.lr.ph.preheader ], [ %indvars.iv.next, %.lr.ph ]
  %.381 = phi ptr [ %.05990, %.lr.ph.preheader ], [ %110, %.lr.ph ]
  %108 = getelementptr inbounds nuw i8, ptr %.06386, i64 %indvars.iv
  %109 = load i8, ptr %108, align 1
  %110 = getelementptr inbounds nuw i8, ptr %.381, i64 1
  store i8 %109, ptr %.381, align 1
  %indvars.iv.next = add nuw nsw i64 %indvars.iv, 1
  %exitcond.not = icmp eq i64 %indvars.iv.next, %wide.trip.count
  br i1 %exitcond.not, label %._crit_edge, label %.lr.ph, !llvm.loop !6

._crit_edge:                                      ; preds = %.lr.ph, %.preheader75
  %.3.lcssa = phi ptr [ %.05990, %.preheader75 ], [ %110, %.lr.ph ]
  %111 = add i32 %15, %.06089
  br label %.loopexit

.loopexit:                                        ; preds = %.preheader.preheader, %105, %._crit_edge, %32, %44, %40, %35
  %.167 = phi ptr [ %33, %32 ], [ %.06684, %35 ], [ %.06684, %40 ], [ %.06684, %44 ], [ %.06684, %105 ], [ %.06684, %._crit_edge ], [ %.06684, %.preheader.preheader ]
  %.165 = phi i32 [ %29, %32 ], [ %.06485, %35 ], [ %.06485, %40 ], [ %.06485, %44 ], [ %.06485, %105 ], [ %.06485, %._crit_edge ], [ %.06485, %.preheader.preheader ]
  %.262 = phi i32 [ 0, %32 ], [ %36, %35 ], [ %42, %40 ], [ %45, %44 ], [ %107, %105 ], [ %111, %._crit_edge ], [ %26, %.preheader.preheader ]
  %.2 = phi ptr [ %34, %32 ], [ %37, %35 ], [ %43, %40 ], [ %46, %44 ], [ %106, %105 ], [ %.3.lcssa, %._crit_edge ], [ %scevgep106, %.preheader.preheader ]
  %112 = sub i64 %.06883, %12
  %113 = getelementptr inbounds i8, ptr %.06386, i64 %12
  %114 = load i8, ptr %113, align 1
  %115 = icmp ne i8 %114, 0
  %116 = icmp ne i64 %112, 0
  %117 = select i1 %115, i1 %116, i1 false
  br i1 %117, label %.lr.ph92, label %._crit_edge93, !llvm.loop !7

._crit_edge93:                                    ; preds = %.loopexit, %.lr.ph92, %5
  %.066.lcssa = phi ptr [ %3, %5 ], [ %.06684, %.lr.ph92 ], [ %.167, %.loopexit ]
  %.064.lcssa = phi i32 [ %4, %5 ], [ %.06485, %.lr.ph92 ], [ %.165, %.loopexit ]
  %.060.lcssa = phi i32 [ 0, %5 ], [ %.06089, %.lr.ph92 ], [ %.262, %.loopexit ]
  %.059.lcssa = phi ptr [ %6, %5 ], [ %.05990, %.lr.ph92 ], [ %.2, %.loopexit ]
  %118 = getelementptr inbounds nuw i8, ptr %.066.lcssa, i64 8
  store i32 %.060.lcssa, ptr %118, align 8
  store i8 0, ptr %.059.lcssa, align 1
  %119 = icmp slt i32 %.064.lcssa, 1
  br i1 %119, label %120, label %121

120:                                              ; preds = %._crit_edge93
  tail call void @exit(i32 noundef 1) #7
  unreachable

121:                                              ; preds = %._crit_edge93
  %122 = getelementptr inbounds nuw i8, ptr %.066.lcssa, i64 16
  store ptr null, ptr %122, align 8
  ret void
}